; Function Attrs: mustprogress uwtable
define void @_ZN14duckdb_parquet14SizeStatisticsC1ERKS0_(ptr noundef nonnull align 8 dereferenceable(65) initializes((0, 64)) %0, ptr noundef nonnull align 8 dereferenceable(65) %1) unnamed_addr #2 align 2 personality ptr @__gxx_personality_v0 {
  store ptr getelementptr inbounds nuw inrange(-48, 40) (i8, ptr @_ZTVN14duckdb_parquet14SizeStatisticsE, i64 48), ptr %0, align 8, !tbaa !22
  %3 = getelementptr inbounds nuw i8, ptr %0, i64 16
  %4 = getelementptr inbounds nuw i8, ptr %0, i64 40
  %5 = getelementptr inbounds nuw i8, ptr %0, i64 64
  tail call void @llvm.memset.p0.i64(ptr noundef nonnull align 8 dereferenceable(48) %3, i8 0, i64 48, i1 false)
  %6 = load i8, ptr %5, align 8
  %7 = and i8 %6, -8
  store i8 %7, ptr %5, align 8
  %8 = getelementptr inbounds nuw i8, ptr %1, i64 8
  %9 = load i64, ptr %8, align 8, !tbaa !78
  %10 = getelementptr inbounds nuw i8, ptr %0, i64 8
  store i64 %9, ptr %10, align 8, !tbaa !78
  %11 = getelementptr inbounds nuw i8, ptr %1, i64 16
  %12 = invoke noundef nonnull align 8 dereferenceable(24) ptr @_ZNSt6vectorIlSaIlEEaSERKS1_(ptr noundef nonnull align 8 dereferenceable(24) %3, ptr noundef nonnull align 8 dereferenceable(24) %11)
          to label %_ZN6duckdb6vectorIlLb1EEaSERKS1_.exit unwind label %17

_ZN6duckdb6vectorIlLb1EEaSERKS1_.exit:            ; preds = %2
  %13 = getelementptr inbounds nuw i8, ptr %1, i64 40
  %14 = invoke noundef nonnull align 8 dereferenceable(24) ptr @_ZNSt6vectorIlSaIlEEaSERKS1_(ptr noundef nonnull align 8 dereferenceable(24) %4, ptr noundef nonnull align 8 dereferenceable(24) %13)
          to label %_ZN6duckdb6vectorIlLb1EEaSERKS1_.exit6 unwind label %17

_ZN6duckdb6vectorIlLb1EEaSERKS1_.exit6:           ; preds = %_ZN6duckdb6vectorIlLb1EEaSERKS1_.exit
  %15 = getelementptr inbounds nuw i8, ptr %1, i64 64
  %16 = load i8, ptr %15, align 8, !tbaa !38
  store i8 %16, ptr %5, align 8, !tbaa !38
  ret void

17:                                               ; preds = %_ZN6duckdb6vectorIlLb1EEaSERKS1_.exit, %2
  %18 = landingpad { ptr, i32 }
          cleanup
  %19 = load ptr, ptr %4, align 8, !tbaa !75
  %.not.i.i.i = icmp eq ptr %19, null
  br i1 %.not.i.i.i, label %_ZNSt6vectorIlSaIlEED2Ev.exit, label %20

20:                                               ; preds = %17
  tail call void @_ZdlPv(ptr noundef nonnull %19) #28
  br label %_ZNSt6vectorIlSaIlEED2Ev.exit

_ZNSt6vectorIlSaIlEED2Ev.exit:                    ; preds = %17, %20
  %21 = load ptr, ptr %3, align 8, !tbaa !75
  %.not.i.i.i7 = icmp eq ptr %21, null
  br i1 %.not.i.i.i7, label %_ZNSt6vectorIlSaIlEED2Ev.exit8, label %22

22:                                               ; preds = %_ZNSt6vectorIlSaIlEED2Ev.exit
  tail call void @_ZdlPv(ptr noundef nonnull %21) #28
  br label %_ZNSt6vectorIlSaIlEED2Ev.exit8

_ZNSt6vectorIlSaIlEED2Ev.exit8:                   ; preds = %_ZNSt6vectorIlSaIlEED2Ev.exit, %22
  resume { ptr, i32 } %18
}